target datalayout = "e-m:e-p270:32:32-p271:32:32-p272:64:64-i64:64-i128:128-f80:128-n8:16:32:64-S128"
target triple = "x86_64-pc-linux-gnu"

%class.aiColor4t = type { float, float, float, float }
%"struct.Assimp::AMFImporter::SPP_Material" = type { %"class.std::__cxx11::basic_string", %"class.std::__cxx11::list", ptr, %"class.std::__cxx11::list.6" }
%"class.std::__cxx11::basic_string" = type { %"struct.std::__cxx11::basic_string<char>::_Alloc_hider", i64, %union.anon }
%"struct.std::__cxx11::basic_string<char>::_Alloc_hider" = type { ptr }
%union.anon = type { i64, [8 x i8] }
%"class.std::__cxx11::list" = type { %"class.std::__cxx11::_List_base" }
%"class.std::__cxx11::_List_base" = type { %"struct.std::__cxx11::_List_base<AMFMetadata *, std::allocator<AMFMetadata *>>::_List_impl" }
%"struct.std::__cxx11::_List_base<AMFMetadata *, std::allocator<AMFMetadata *>>::_List_impl" = type { %"struct.std::__detail::_List_node_header" }
%"struct.std::__detail::_List_node_header" = type { %"struct.std::__detail::_List_node_base", i64 }
%"struct.std::__detail::_List_node_base" = type { ptr, ptr }
%"class.std::__cxx11::list.6" = type { %"class.std::__cxx11::_List_base.7" }
%"class.std::__cxx11::_List_base.7" = type { %"struct.std::__cxx11::_List_base<Assimp::AMFImporter::SPP_Composite, std::allocator<Assimp::AMFImporter::SPP_Composite>>::_List_impl" }
%"struct.std::__cxx11::_List_base<Assimp::AMFImporter::SPP_Composite, std::allocator<Assimp::AMFImporter::SPP_Composite>>::_List_impl" = type { %"struct.std::__detail::_List_node_header" }
%struct.AMFColor = type { %class.AMFNodeElementBase, i8, [4 x %"class.std::__cxx11::basic_string"], %class.aiColor4t, %"class.std::__cxx11::basic_string" }
%class.AMFNodeElementBase = type { ptr, i32, %"class.std::__cxx11::basic_string", ptr, %"class.std::__cxx11::list.12" }
%"class.std::__cxx11::list.12" = type { %"class.std::__cxx11::_List_base.13" }
%"class.std::__cxx11::_List_base.13" = type { %"struct.std::__cxx11::_List_base<AMFNodeElementBase *, std::allocator<AMFNodeElementBase *>>::_List_impl" }
%"struct.std::__cxx11::_List_base<AMFNodeElementBase *, std::allocator<AMFNodeElementBase *>>::_List_impl" = type { %"struct.std::__detail::_List_node_header" }

@.str = private unnamed_addr constant [30 x i8] c"IME. GetColor for composition\00", align 1
@_ZTI17DeadlyImportError = linkonce_odr constant { ptr, ptr, ptr } { ptr getelementptr inbounds (ptr, ptr @_ZTVN10__cxxabiv120__si_class_type_infoE, i64 2), ptr @_ZTS17DeadlyImportError, ptr @_ZTI15DeadlyErrorBase }, comdat, align 8
@.str.1 = private unnamed_addr constant [30 x i8] c"IME. GetColor, composed color\00", align 1

; Function Attrs: mustprogress nounwind uwtable
define linkonce_odr hidden noundef zeroext i1 @_ZNKSt7__cxx114listIN6Assimp11AMFImporter13SPP_CompositeESaIS3_EE5emptyEv(ptr noundef nonnull align 8 dereferenceable(24) %0) #6 comdat align 2 {
  %2 = alloca ptr, align 8
  store ptr %0, ptr %2, align 8
  %3 = load ptr, ptr %2, align 8
  %4 = getelementptr inbounds nuw %"class.std::__cxx11::_List_base.7", ptr %3, i32 0, i32 0
  %5 = getelementptr inbounds nuw %"struct.std::__cxx11::_List_base<Assimp::AMFImporter::SPP_Composite, std::allocator<Assimp::AMFImporter::SPP_Composite>>::_List_impl", ptr %4, i32 0, i32 0
  %6 = getelementptr inbounds nuw %"struct.std::__detail::_List_node_base", ptr %5, i32 0, i32 0
  %7 = load ptr, ptr %6, align 8
  %8 = getelementptr inbounds nuw %"class.std::__cxx11::_List_base.7", ptr %3, i32 0, i32 0
  %9 = getelementptr inbounds nuw %"struct.std::__cxx11::_List_base<Assimp::AMFImporter::SPP_Composite, std::allocator<Assimp::AMFImporter::SPP_Composite>>::_List_impl", ptr %8, i32 0, i32 0
  %10 = icmp eq ptr %7, %9
  ret i1 %10
}

; Function Attrs: mustprogress nounwind uwtable
define linkonce_odr hidden void @_ZN9aiColor4tIfEC2Ev(ptr noundef nonnull align 4 dereferenceable(16) %0) unnamed_addr #6 comdat align 2 {
  %2 = alloca ptr, align 8
  store ptr %0, ptr %2, align 8
  %3 = load ptr, ptr %2, align 8
  %4 = getelementptr inbounds nuw %class.aiColor4t, ptr %3, i32 0, i32 0
  store float 0.000000e+00, ptr %4, align 4
  %5 = getelementptr inbounds nuw %class.aiColor4t, ptr %3, i32 0, i32 1
  store float 0.000000e+00, ptr %5, align 4
  %6 = getelementptr inbounds nuw %class.aiColor4t, ptr %3, i32 0, i32 2
  store float 0.000000e+00, ptr %6, align 4
  %7 = getelementptr inbounds nuw %class.aiColor4t, ptr %3, i32 0, i32 3
  store float 0.000000e+00, ptr %7, align 4
  ret void
}

; Function Attrs: mustprogress uwtable
define hidden { <2 x float>, <2 x float> } @_ZNK6Assimp11AMFImporter12SPP_Material8GetColorEfff(ptr noundef nonnull align 8 dereferenceable(88) %0, float noundef %1, float noundef %2, float noundef %3) #5 align 2 personality ptr @__gxx_personality_v0 {
  %5 = alloca %class.aiColor4t, align 4
  %6 = alloca ptr, align 8
  %7 = alloca float, align 4
  %8 = alloca float, align 4
  %9 = alloca float, align 4
  %10 = alloca ptr, align 8
  %11 = alloca i32, align 4
  store ptr %0, ptr %6, align 8
  store float %1, ptr %7, align 4
  store float %2, ptr %8, align 4
  store float %3, ptr %9, align 4
  %12 = load ptr, ptr %6, align 8
  call void @_ZN9aiColor4tIfEC2Ev(ptr noundef nonnull align 4 dereferenceable(16) %5) #4
  %13 = getelementptr inbounds nuw %"struct.Assimp::AMFImporter::SPP_Material", ptr %12, i32 0, i32 3
  %14 = call noundef zeroext i1 @_ZNKSt7__cxx114listIN6Assimp11AMFImporter13SPP_CompositeESaIS3_EE5emptyEv(ptr noundef nonnull align 8 dereferenceable(24) %13) #4
  br i1 %14, label %22, label %15

15:                                               ; preds = %4
  %16 = call ptr @__cxa_allocate_exception(i64 16) #4
  invoke void @_ZN17DeadlyImportErrorC2EPKc(ptr noundef nonnull align 8 dereferenceable(16) %16, ptr noundef @.str)
          to label %17 unwind label %18

17:                                               ; preds = %15
  call void @__cxa_throw(ptr %16, ptr @_ZTI17DeadlyImportError, ptr @_ZNSt13runtime_errorD2Ev) #21
  unreachable

18:                                               ; preds = %15
  %19 = landingpad { ptr, i32 }
          cleanup
  %20 = extractvalue { ptr, i32 } %19, 0
  store ptr %20, ptr %10, align 8
  %21 = extractvalue { ptr, i32 } %19, 1
  store i32 %21, ptr %11, align 4
  call void @__cxa_free_exception(ptr %16) #4
  br label %61

22:                                               ; preds = %4
  %23 = getelementptr inbounds nuw %"struct.Assimp::AMFImporter::SPP_Material", ptr %12, i32 0, i32 2
  %24 = load ptr, ptr %23, align 8
  %25 = getelementptr inbounds nuw %struct.AMFColor, ptr %24, i32 0, i32 1
  %26 = load i8, ptr %25, align 8, !range !3, !noundef !4
  %27 = trunc i8 %26 to i1
  br i1 %27, label %28, label %35

28:                                               ; preds = %22
  %29 = call ptr @__cxa_allocate_exception(i64 16) #4
  invoke void @_ZN17DeadlyImportErrorC2EPKc(ptr noundef nonnull align 8 dereferenceable(16) %29, ptr noundef @.str.1)
          to label %30 unwind label %31

30:                                               ; preds = %28
  call void @__cxa_throw(ptr %29, ptr @_ZTI17DeadlyImportError, ptr @_ZNSt13runtime_errorD2Ev) #21
  unreachable

31:                                               ; preds = %28
  %32 = landingpad { ptr, i32 }
          cleanup
  %33 = extractvalue { ptr, i32 } %32, 0
  store ptr %33, ptr %10, align 8
  %34 = extractvalue { ptr, i32 } %32, 1
  store i32 %34, ptr %11, align 4
  call void @__cxa_free_exception(ptr %29) #4
  br label %61

35:                                               ; preds = %22
  %36 = getelementptr inbounds nuw %"struct.Assimp::AMFImporter::SPP_Material", ptr %12, i32 0, i32 2
  %37 = load ptr, ptr %36, align 8
  %38 = getelementptr inbounds nuw %struct.AMFColor, ptr %37, i32 0, i32 3
  call void @llvm.memcpy.p0.p0.i64(ptr align 4 %5, ptr align 8 %38, i64 16, i1 false)
  %39 = getelementptr inbounds nuw %class.aiColor4t, ptr %5, i32 0, i32 0
  %40 = load float, ptr %39, align 4
  %41 = fcmp oeq float %40, 0.000000e+00
  br i1 %41, label %42, label %59

42:                                               ; preds = %35
  %43 = getelementptr inbounds nuw %class.aiColor4t, ptr %5, i32 0, i32 1
  %44 = load float, ptr %43, align 4
  %45 = fcmp oeq float %44, 0.000000e+00
  br i1 %45, label %46, label %59

46:                                               ; preds = %42
  %47 = getelementptr inbounds nuw %class.aiColor4t, ptr %5, i32 0, i32 2
  %48 = load float, ptr %47, align 4
  %49 = fcmp oeq float %48, 0.000000e+00
  br i1 %49, label %50, label %59

50:                                               ; preds = %46
  %51 = getelementptr inbounds nuw %class.aiColor4t, ptr %5, i32 0, i32 3
  %52 = load float, ptr %51, align 4
  %53 = fcmp oeq float %52, 0.000000e+00
  br i1 %53, label %54, label %59

54:                                               ; preds = %50
  %55 = getelementptr inbounds nuw %class.aiColor4t, ptr %5, i32 0, i32 0
  store float 5.000000e-01, ptr %55, align 4
  %56 = getelementptr inbounds nuw %class.aiColor4t, ptr %5, i32 0, i32 1
  store float 5.000000e-01, ptr %56, align 4
  %57 = getelementptr inbounds nuw %class.aiColor4t, ptr %5, i32 0, i32 2
  store float 5.000000e-01, ptr %57, align 4
  %58 = getelementptr inbounds nuw %class.aiColor4t, ptr %5, i32 0, i32 3
  store float 1.000000e+00, ptr %58, align 4
  br label %59

59:                                               ; preds = %54, %50, %46, %42, %35
  %60 = load { <2 x float>, <2 x float> }, ptr %5, align 4
  ret { <2 x float>, <2 x float> } %60

61:                                               ; preds = %31, %18
  %62 = load ptr, ptr %10, align 8
  %63 = load i32, ptr %11, align 4
  %64 = insertvalue { ptr, i32 } poison, ptr %62, 0
  %65 = insertvalue { ptr, i32 } %64, i32 %63, 1
  resume { ptr, i32 } %65
}