; Function Attrs: mustprogress uwtable
define hidden { <2 x float>, <2 x float> } @_ZNK6Assimp11AMFImporter12SPP_Material8GetColorEfff(ptr noundef nonnull readonly align 8 captures(address) dereferenceable(88) %0, float noundef %1, float noundef %2, float noundef %3) local_unnamed_addr #3 align 2 personality ptr @__gxx_personality_v0 {
  %5 = getelementptr inbounds nuw i8, ptr %0, i64 64
  %6 = load ptr, ptr %5, align 8
  %7 = icmp eq ptr %6, %5
  br i1 %7, label %13, label %8

8:                                                ; preds = %4
  %9 = tail call ptr @__cxa_allocate_exception(i64 16) #29
  invoke void @_ZN17DeadlyImportErrorC2EPKc(ptr noundef nonnull align 8 dereferenceable(16) %9, ptr noundef nonnull @.str)
          to label %10 unwind label %11

10:                                               ; preds = %8
  tail call void @__cxa_throw(ptr nonnull %9, ptr nonnull @_ZTI17DeadlyImportError, ptr nonnull @_ZNSt13runtime_errorD2Ev) #30
  unreachable

11:                                               ; preds = %8
  %12 = landingpad { ptr, i32 }
          cleanup
  br label %30

13:                                               ; preds = %4
  %14 = getelementptr inbounds nuw i8, ptr %0, i64 56
  %15 = load ptr, ptr %14, align 8
  %16 = getelementptr inbounds nuw i8, ptr %15, i64 80
  %17 = load i8, ptr %16, align 8, !range !3, !noundef !4
  %18 = trunc nuw i8 %17 to i1
  br i1 %18, label %19, label %24

19:                                               ; preds = %13
  %20 = tail call ptr @__cxa_allocate_exception(i64 16) #29
  invoke void @_ZN17DeadlyImportErrorC2EPKc(ptr noundef nonnull align 8 dereferenceable(16) %20, ptr noundef nonnull @.str.1)
          to label %21 unwind label %22

21:                                               ; preds = %19
  tail call void @__cxa_throw(ptr nonnull %20, ptr nonnull @_ZTI17DeadlyImportError, ptr nonnull @_ZNSt13runtime_errorD2Ev) #30
  unreachable

22:                                               ; preds = %19
  %23 = landingpad { ptr, i32 }
          cleanup
  br label %30

24:                                               ; preds = %13
  %25 = getelementptr inbounds nuw i8, ptr %15, i64 216
  %.sroa.0.0.copyload = load <2 x float>, ptr %25, align 8
  %.sroa.7.0..sroa_idx = getelementptr inbounds nuw i8, ptr %15, i64 224
  %.sroa.7.0.copyload = load <2 x float>, ptr %.sroa.7.0..sroa_idx, align 8
  %.sroa.0.0.vec.extract = extractelement <2 x float> %.sroa.0.0.copyload, i64 0
  %26 = fcmp oeq float %.sroa.0.0.vec.extract, 0.000000e+00
  %.sroa.0.4.vec.extract = extractelement <2 x float> %.sroa.0.0.copyload, i64 1
  %27 = fcmp oeq float %.sroa.0.4.vec.extract, 0.000000e+00
  %or.cond = select i1 %26, i1 %27, i1 false
  %.sroa.7.8.vec.extract = extractelement <2 x float> %.sroa.7.0.copyload, i64 0
  %28 = fcmp oeq float %.sroa.7.8.vec.extract, 0.000000e+00
  %or.cond5 = select i1 %or.cond, i1 %28, i1 false
  %.sroa.7.12.vec.extract = extractelement <2 x float> %.sroa.7.0.copyload, i64 1
  %29 = fcmp oeq float %.sroa.7.12.vec.extract, 0.000000e+00
  %or.cond8 = select i1 %or.cond5, i1 %29, i1 false
  %.sroa.7.0 = select i1 %or.cond8, <2 x float> <float 5.000000e-01, float 1.000000e+00>, <2 x float> %.sroa.7.0.copyload
  %.sroa.0.0 = select i1 %or.cond8, <2 x float> splat (float 5.000000e-01), <2 x float> %.sroa.0.0.copyload
  %.fca.0.insert = insertvalue { <2 x float>, <2 x float> } poison, <2 x float> %.sroa.0.0, 0
  %.fca.1.insert = insertvalue { <2 x float>, <2 x float> } %.fca.0.insert, <2 x float> %.sroa.7.0, 1
  ret { <2 x float>, <2 x float> } %.fca.1.insert

30:                                               ; preds = %22, %11
  %.sink = phi ptr [ %20, %22 ], [ %9, %11 ]
  %.pn = phi { ptr, i32 } [ %23, %22 ], [ %12, %11 ]
  tail call void @__cxa_free_exception(ptr nonnull %.sink) #29
  resume { ptr, i32 } %.pn
}